target datalayout = "e-m:e-p270:32:32-p271:32:32-p272:64:64-i64:64-i128:128-f80:128-n8:16:32:64-S128"
target triple = "x86_64-pc-linux-gnu"

%class.anon.20 = type { ptr }

@.str.3 = private unnamed_addr constant [3 x i8] c": \00", align 1
@_ZTISt13runtime_error = external constant ptr

; Function Attrs: inlinehint mustprogress sspstrong uwtable
define internal void @"_ZZN3tbb6detail2r113handle_perrorEiPKcENK3$_0clEv"(ptr noundef nonnull align 8 dereferenceable(8) %0) #12 align 2 personality ptr @__gxx_personality_v0 {
  %2 = alloca ptr, align 8
  %3 = alloca ptr, align 8
  %4 = alloca i32, align 4
  store ptr %0, ptr %2, align 8, !tbaa !12
  %5 = load ptr, ptr %2, align 8
  %6 = call ptr @__cxa_allocate_exception(i64 16) #15
  %7 = getelementptr inbounds nuw %class.anon.20, ptr %5, i32 0, i32 0
  %8 = load ptr, ptr %7, align 8, !tbaa !30
  %9 = getelementptr inbounds [256 x i8], ptr %8, i64 0, i64 0
  invoke void @_ZNSt13runtime_errorC1EPKc(ptr noundef nonnull align 8 dereferenceable(16) %6, ptr noundef %9)
          to label %10 unwind label %11

10:                                               ; preds = %1
  call void @__cxa_throw(ptr %6, ptr @_ZTISt13runtime_error, ptr @_ZNSt13runtime_errorD1Ev) #18
  unreachable

11:                                               ; preds = %1
  %12 = landingpad { ptr, i32 }
          cleanup
  %13 = extractvalue { ptr, i32 } %12, 0
  store ptr %13, ptr %3, align 8
  %14 = extractvalue { ptr, i32 } %12, 1
  store i32 %14, ptr %4, align 4
  call void @__cxa_free_exception(ptr %6) #15
  br label %15

15:                                               ; preds = %11
  %16 = load ptr, ptr %3, align 8
  %17 = load i32, ptr %4, align 4
  %18 = insertvalue { ptr, i32 } poison, ptr %16, 0
  %19 = insertvalue { ptr, i32 } %18, i32 %17, 1
  resume { ptr, i32 } %19
}

; Function Attrs: mustprogress nounwind sspstrong uwtable
define internal void @"_ZN3tbb6detail2r117do_throw_noexceptIZNS1_13handle_perrorEiPKcE3$_0EEvT_"(ptr %0) #0 personality ptr @__gxx_personality_v0 {
  %2 = alloca %class.anon.20, align 8
  %3 = getelementptr inbounds nuw %class.anon.20, ptr %2, i32 0, i32 0
  store ptr %0, ptr %3, align 8
  invoke void @"_ZZN3tbb6detail2r113handle_perrorEiPKcENK3$_0clEv"(ptr noundef nonnull align 8 dereferenceable(8) %2)
          to label %4 unwind label %5

4:                                                ; preds = %1
  ret void

5:                                                ; preds = %1
  %6 = landingpad { ptr, i32 }
          catch ptr null
  %7 = extractvalue { ptr, i32 } %6, 0
  call void @__clang_call_terminate(ptr %7) #14
  unreachable
}

; Function Attrs: mustprogress sspstrong uwtable
define internal void @"_ZN3tbb6detail2r18do_throwIZNS1_13handle_perrorEiPKcE3$_0EEvT_"(ptr %0) #2 {
  %2 = alloca %class.anon.20, align 8
  %3 = alloca %class.anon.20, align 8
  %4 = getelementptr inbounds nuw %class.anon.20, ptr %2, i32 0, i32 0
  store ptr %0, ptr %4, align 8
  %5 = call noundef zeroext i1 @_ZN3tbb6detail2r122terminate_on_exceptionEv()
  br i1 %5, label %6, label %9

6:                                                ; preds = %1
  call void @llvm.memcpy.p0.p0.i64(ptr align 8 %3, ptr align 8 %2, i64 8, i1 false), !tbaa.struct !21
  %7 = getelementptr inbounds nuw %class.anon.20, ptr %3, i32 0, i32 0
  %8 = load ptr, ptr %7, align 8
  call void @"_ZN3tbb6detail2r117do_throw_noexceptIZNS1_13handle_perrorEiPKcE3$_0EEvT_"(ptr %8) #15
  br label %9

9:                                                ; preds = %6, %1
  call void @"_ZZN3tbb6detail2r113handle_perrorEiPKcENK3$_0clEv"(ptr noundef nonnull align 8 dereferenceable(8) %2)
  ret void
}

; Function Attrs: alwaysinline mustprogress nounwind
define internal ptr @strncat.inline(ptr noalias nonnull %0, ptr noalias nonnull %1, i64 %2) #5 {
  %4 = alloca ptr, align 8
  %5 = alloca ptr, align 8
  %6 = alloca i64, align 8
  store ptr %0, ptr %4, align 8, !tbaa !17
  store ptr %1, ptr %5, align 8, !tbaa !17
  store i64 %2, ptr %6, align 8, !tbaa !19
  %7 = load ptr, ptr %4, align 8, !tbaa !17
  %8 = load ptr, ptr %5, align 8, !tbaa !17
  %9 = load i64, ptr %6, align 8, !tbaa !19
  %10 = load ptr, ptr %4, align 8, !tbaa !17
  %11 = call i64 @llvm.objectsize.i64.p0(ptr %10, i1 false, i1 true, i1 false)
  %12 = call ptr @__strncat_chk(ptr noundef %7, ptr noundef %8, i64 noundef %9, i64 noundef %11) #15
  ret ptr %12
}

; Function Attrs: mustprogress sspstrong uwtable
define void @_ZN3tbb6detail2r113handle_perrorEiPKc(i32 noundef %0, ptr noundef %1) #2 {
  %3 = alloca i32, align 4
  %4 = alloca ptr, align 8
  %5 = alloca i32, align 4
  %6 = alloca [256 x i8], align 16
  %7 = alloca i64, align 8
  %8 = alloca %class.anon.20, align 8
  store i32 %0, ptr %3, align 4, !tbaa !15
  store ptr %1, ptr %4, align 8, !tbaa !17
  call void @llvm.lifetime.start.p0(i64 4, ptr %5) #15
  store i32 255, ptr %5, align 4, !tbaa !15
  call void @llvm.lifetime.start.p0(i64 256, ptr %6) #15
  call void @llvm.memset.p0.i64(ptr align 16 %6, i8 0, i64 256, i1 false)
  %9 = getelementptr inbounds [256 x i8], ptr %6, i64 0, i64 0
  %10 = load ptr, ptr %4, align 8, !tbaa !17
  %11 = call ptr @strncat.inline(ptr noundef %9, ptr noundef %10, i64 noundef 255) #15
  call void @llvm.lifetime.start.p0(i64 8, ptr %7) #15
  %12 = getelementptr inbounds [256 x i8], ptr %6, i64 0, i64 0
  %13 = call i64 @strlen(ptr noundef %12) #16
  store i64 %13, ptr %7, align 8, !tbaa !19
  %14 = load i32, ptr %3, align 4, !tbaa !15
  %15 = icmp ne i32 %14, 0
  br i1 %15, label %16, label %31

16:                                               ; preds = %2
  %17 = getelementptr inbounds [256 x i8], ptr %6, i64 0, i64 0
  %18 = load i64, ptr %7, align 8, !tbaa !19
  %19 = sub i64 255, %18
  %20 = call ptr @strncat.inline(ptr noundef %17, ptr noundef @.str.3, i64 noundef %19) #15
  %21 = getelementptr inbounds [256 x i8], ptr %6, i64 0, i64 0
  %22 = call i64 @strlen(ptr noundef %21) #16
  store i64 %22, ptr %7, align 8, !tbaa !19
  %23 = getelementptr inbounds [256 x i8], ptr %6, i64 0, i64 0
  %24 = load i32, ptr %3, align 4, !tbaa !15
  %25 = call ptr @strerror(i32 noundef %24) #15
  %26 = load i64, ptr %7, align 8, !tbaa !19
  %27 = sub i64 255, %26
  %28 = call ptr @strncat.inline(ptr noundef %23, ptr noundef %25, i64 noundef %27) #15
  %29 = getelementptr inbounds [256 x i8], ptr %6, i64 0, i64 0
  %30 = call i64 @strlen(ptr noundef %29) #16
  store i64 %30, ptr %7, align 8, !tbaa !19
  br label %31

31:                                               ; preds = %16, %2
  %32 = getelementptr inbounds nuw %class.anon.20, ptr %8, i32 0, i32 0
  store ptr %6, ptr %32, align 8, !tbaa !17
  %33 = getelementptr inbounds nuw %class.anon.20, ptr %8, i32 0, i32 0
  %34 = load ptr, ptr %33, align 8
  call void @"_ZN3tbb6detail2r18do_throwIZNS1_13handle_perrorEiPKcE3$_0EEvT_"(ptr %34)
  call void @llvm.lifetime.end.p0(i64 8, ptr %7) #15
  call void @llvm.lifetime.end.p0(i64 256, ptr %6) #15
  call void @llvm.lifetime.end.p0(i64 4, ptr %5) #15
  ret void
}