; Function Attrs: mustprogress noreturn sspstrong uwtable
define void @_ZN3tbb6detail2r113handle_perrorEiPKc(i32 noundef %0, ptr noundef %1) local_unnamed_addr #6 personality ptr @__gxx_personality_v0 {
  %3 = alloca [256 x i8], align 16
  call void @llvm.lifetime.start.p0(i64 256, ptr nonnull %3) #18
  call void @llvm.memset.p0.i64(ptr noundef nonnull align 16 dereferenceable(256) %3, i8 0, i64 256, i1 false)
  %4 = call ptr @__strncat_chk(ptr noundef nonnull %3, ptr noundef nonnull %1, i64 noundef 255, i64 noundef 256) #18
  %.not = icmp eq i32 %0, 0
  br i1 %.not, label %13, label %5

5:                                                ; preds = %2
  %6 = call i64 @strlen(ptr noundef nonnull dereferenceable(1) %3) #20
  %7 = sub i64 255, %6
  %8 = call ptr @__strncat_chk(ptr noundef nonnull %3, ptr noundef nonnull @.str.3, i64 noundef %7, i64 noundef 256) #18
  %9 = call i64 @strlen(ptr noundef nonnull dereferenceable(1) %3) #20
  %10 = call ptr @strerror(i32 noundef %0) #18
  %11 = sub i64 255, %9
  %12 = call ptr @__strncat_chk(ptr noundef nonnull %3, ptr noundef nonnull %10, i64 noundef %11, i64 noundef 256) #18
  br label %13

13:                                               ; preds = %5, %2
  %14 = call noundef zeroext i1 @_ZN3tbb6detail2r122terminate_on_exceptionEv()
  %15 = call ptr @__cxa_allocate_exception(i64 16) #18
  br i1 %14, label %16, label %23

16:                                               ; preds = %13
  invoke void @_ZNSt13runtime_errorC1EPKc(ptr noundef nonnull align 8 dereferenceable(16) %15, ptr noundef nonnull %3)
          to label %17 unwind label %18

17:                                               ; preds = %16
  invoke void @__cxa_throw(ptr nonnull %15, ptr nonnull @_ZTISt13runtime_error, ptr nonnull @_ZNSt13runtime_errorD1Ev) #19
          to label %.noexc.i.i unwind label %20

.noexc.i.i:                                       ; preds = %17
  unreachable

18:                                               ; preds = %16
  %19 = landingpad { ptr, i32 }
          catch ptr null
  call void @__cxa_free_exception(ptr nonnull %15) #18
  br label %.body.i.i

20:                                               ; preds = %17
  %21 = landingpad { ptr, i32 }
          catch ptr null
  br label %.body.i.i

.body.i.i:                                        ; preds = %20, %18
  %eh.lpad-body.i.i = phi { ptr, i32 } [ %21, %20 ], [ %19, %18 ]
  %22 = extractvalue { ptr, i32 } %eh.lpad-body.i.i, 0
  call void @__clang_call_terminate(ptr %22) #17
  unreachable

23:                                               ; preds = %13
  invoke void @_ZNSt13runtime_errorC1EPKc(ptr noundef nonnull align 8 dereferenceable(16) %15, ptr noundef nonnull %3)
          to label %24 unwind label %25

24:                                               ; preds = %23
  call void @__cxa_throw(ptr nonnull %15, ptr nonnull @_ZTISt13runtime_error, ptr nonnull @_ZNSt13runtime_errorD1Ev) #19
  unreachable

25:                                               ; preds = %23
  %26 = landingpad { ptr, i32 }
          cleanup
  call void @__cxa_free_exception(ptr nonnull %15) #18
  resume { ptr, i32 } %26
}